target datalayout = "e-m:e-p270:32:32-p271:32:32-p272:64:64-i64:64-i128:128-f80:128-n8:16:32:64-S128"
target triple = "x86_64-pc-linux-gnu"

%struct.ArrayBuildState = type { ptr, ptr, ptr, i32, i32, i32, i16, i8, i8, i8 }

@.str.2 = private unnamed_addr constant [13 x i8] c"arrayfuncs.c\00", align 1
@.str.7 = private unnamed_addr constant [44 x i8] c"array size exceeds the maximum allowed (%d)\00", align 1
@.str.35 = private unnamed_addr constant [17 x i8] c"accumArrayResult\00", align 1
@CurrentMemoryContext = external global ptr, align 8

; Function Attrs: nounwind uwtable
define dso_local ptr @initArrayResultWithSize(i32 noundef %0, ptr noundef %1, i1 noundef zeroext %2, i32 noundef %3) #0 {
  %5 = alloca i32, align 4
  %6 = alloca ptr, align 8
  %7 = alloca i8, align 1
  %8 = alloca i32, align 4
  %9 = alloca ptr, align 8
  %10 = alloca ptr, align 8
  %11 = alloca i32, align 4
  store i32 %0, ptr %5, align 4
  store ptr %1, ptr %6, align 8
  %12 = zext i1 %2 to i8
  store i8 %12, ptr %7, align 1
  store i32 %3, ptr %8, align 4
  call void @llvm.lifetime.start.p0(i64 8, ptr %9) #11
  call void @llvm.lifetime.start.p0(i64 8, ptr %10) #11
  %13 = load ptr, ptr %6, align 8
  store ptr %13, ptr %10, align 8
  %14 = load i8, ptr %7, align 1, !range !4, !noundef !5
  %15 = trunc i8 %14 to i1
  br i1 %15, label %16, label %22

16:                                               ; preds = %4
  br label %17

17:                                               ; preds = %16
  br label %18

18:                                               ; preds = %17
  br label %19

19:                                               ; preds = %18
  store i32 1, ptr %11, align 4
  %20 = load ptr, ptr %6, align 8
  %21 = call ptr @AllocSetContextCreateInternal(ptr noundef %20, ptr noundef @.str.35, i64 noundef 0, i64 noundef 8192, i64 noundef 8388608)
  store ptr %21, ptr %10, align 8
  br label %22

22:                                               ; preds = %19, %4
  %23 = load ptr, ptr %10, align 8
  %24 = call ptr @MemoryContextAlloc(ptr noundef %23, i64 noundef 48)
  store ptr %24, ptr %9, align 8
  %25 = load ptr, ptr %10, align 8
  %26 = load ptr, ptr %9, align 8
  %27 = getelementptr inbounds nuw %struct.ArrayBuildState, ptr %26, i32 0, i32 0
  store ptr %25, ptr %27, align 8
  %28 = load i8, ptr %7, align 1, !range !4, !noundef !5
  %29 = trunc i8 %28 to i1
  %30 = load ptr, ptr %9, align 8
  %31 = getelementptr inbounds nuw %struct.ArrayBuildState, ptr %30, i32 0, i32 9
  %32 = zext i1 %29 to i8
  store i8 %32, ptr %31, align 8
  %33 = load i32, ptr %8, align 4
  %34 = load ptr, ptr %9, align 8
  %35 = getelementptr inbounds nuw %struct.ArrayBuildState, ptr %34, i32 0, i32 3
  store i32 %33, ptr %35, align 8
  %36 = load ptr, ptr %10, align 8
  %37 = load ptr, ptr %9, align 8
  %38 = getelementptr inbounds nuw %struct.ArrayBuildState, ptr %37, i32 0, i32 3
  %39 = load i32, ptr %38, align 8
  %40 = sext i32 %39 to i64
  %41 = mul i64 %40, 8
  %42 = call ptr @MemoryContextAlloc(ptr noundef %36, i64 noundef %41)
  %43 = load ptr, ptr %9, align 8
  %44 = getelementptr inbounds nuw %struct.ArrayBuildState, ptr %43, i32 0, i32 1
  store ptr %42, ptr %44, align 8
  %45 = load ptr, ptr %10, align 8
  %46 = load ptr, ptr %9, align 8
  %47 = getelementptr inbounds nuw %struct.ArrayBuildState, ptr %46, i32 0, i32 3
  %48 = load i32, ptr %47, align 8
  %49 = sext i32 %48 to i64
  %50 = mul i64 %49, 1
  %51 = call ptr @MemoryContextAlloc(ptr noundef %45, i64 noundef %50)
  %52 = load ptr, ptr %9, align 8
  %53 = getelementptr inbounds nuw %struct.ArrayBuildState, ptr %52, i32 0, i32 2
  store ptr %51, ptr %53, align 8
  %54 = load ptr, ptr %9, align 8
  %55 = getelementptr inbounds nuw %struct.ArrayBuildState, ptr %54, i32 0, i32 4
  store i32 0, ptr %55, align 4
  %56 = load i32, ptr %5, align 4
  %57 = load ptr, ptr %9, align 8
  %58 = getelementptr inbounds nuw %struct.ArrayBuildState, ptr %57, i32 0, i32 5
  store i32 %56, ptr %58, align 8
  %59 = load i32, ptr %5, align 4
  %60 = load ptr, ptr %9, align 8
  %61 = getelementptr inbounds nuw %struct.ArrayBuildState, ptr %60, i32 0, i32 6
  %62 = load ptr, ptr %9, align 8
  %63 = getelementptr inbounds nuw %struct.ArrayBuildState, ptr %62, i32 0, i32 7
  %64 = load ptr, ptr %9, align 8
  %65 = getelementptr inbounds nuw %struct.ArrayBuildState, ptr %64, i32 0, i32 8
  call void @get_typlenbyvalalign(i32 noundef %59, ptr noundef %61, ptr noundef %63, ptr noundef %65)
  %66 = load ptr, ptr %9, align 8
  call void @llvm.lifetime.end.p0(i64 8, ptr %10) #11
  call void @llvm.lifetime.end.p0(i64 8, ptr %9) #11
  ret ptr %66
}

; Function Attrs: inlinehint nounwind uwtable
define internal i64 @PointerGetDatum(ptr noundef %0) #2 {
  %2 = alloca ptr, align 8
  store ptr %0, ptr %2, align 8
  %3 = load ptr, ptr %2, align 8
  %4 = ptrtoint ptr %3 to i64
  ret i64 %4
}

; Function Attrs: inlinehint nounwind uwtable
define internal ptr @DatumGetPointer(i64 noundef %0) #2 {
  %2 = alloca i64, align 8
  store i64 %0, ptr %2, align 8
  %3 = load i64, ptr %2, align 8
  %4 = inttoptr i64 %3 to ptr
  ret ptr %4
}

; Function Attrs: inlinehint nounwind uwtable
define internal ptr @MemoryContextSwitchTo(ptr noundef %0) #2 {
  %2 = alloca ptr, align 8
  %3 = alloca ptr, align 8
  store ptr %0, ptr %2, align 8
  call void @llvm.lifetime.start.p0(i64 8, ptr %3) #11
  %4 = load ptr, ptr @CurrentMemoryContext, align 8
  store ptr %4, ptr %3, align 8
  %5 = load ptr, ptr %2, align 8
  store ptr %5, ptr @CurrentMemoryContext, align 8
  %6 = load ptr, ptr %3, align 8
  call void @llvm.lifetime.end.p0(i64 8, ptr %3) #11
  ret ptr %6
}

; Function Attrs: nounwind uwtable
define dso_local ptr @initArrayResult(i32 noundef %0, ptr noundef %1, i1 noundef zeroext %2) #0 {
  %4 = alloca i32, align 4
  %5 = alloca ptr, align 8
  %6 = alloca i8, align 1
  store i32 %0, ptr %4, align 4
  store ptr %1, ptr %5, align 8
  %7 = zext i1 %2 to i8
  store i8 %7, ptr %6, align 1
  %8 = load i32, ptr %4, align 4
  %9 = load ptr, ptr %5, align 8
  %10 = load i8, ptr %6, align 1, !range !4, !noundef !5
  %11 = trunc i8 %10 to i1
  %12 = load i8, ptr %6, align 1, !range !4, !noundef !5
  %13 = trunc i8 %12 to i1
  %14 = select i1 %13, i32 64, i32 8
  %15 = call ptr @initArrayResultWithSize(i32 noundef %8, ptr noundef %9, i1 noundef zeroext %11, i32 noundef %14)
  ret ptr %15
}

; Function Attrs: nounwind uwtable
define dso_local ptr @accumArrayResult(ptr noundef %0, i64 noundef %1, i1 noundef zeroext %2, i32 noundef %3, ptr noundef %4) #0 {
  %6 = alloca ptr, align 8
  %7 = alloca i64, align 8
  %8 = alloca i8, align 1
  %9 = alloca i32, align 4
  %10 = alloca ptr, align 8
  %11 = alloca ptr, align 8
  store ptr %0, ptr %6, align 8
  store i64 %1, ptr %7, align 8
  %12 = zext i1 %2 to i8
  store i8 %12, ptr %8, align 1
  store i32 %3, ptr %9, align 4
  store ptr %4, ptr %10, align 8
  call void @llvm.lifetime.start.p0(i64 8, ptr %11) #11
  %13 = load ptr, ptr %6, align 8
  %14 = icmp eq ptr %13, null
  br i1 %14, label %15, label %19

15:                                               ; preds = %5
  %16 = load i32, ptr %9, align 4
  %17 = load ptr, ptr %10, align 8
  %18 = call ptr @initArrayResult(i32 noundef %16, ptr noundef %17, i1 noundef zeroext true)
  store ptr %18, ptr %6, align 8
  br label %20

19:                                               ; preds = %5
  br label %20

20:                                               ; preds = %19, %15
  %21 = load ptr, ptr %6, align 8
  %22 = getelementptr inbounds nuw %struct.ArrayBuildState, ptr %21, i32 0, i32 0
  %23 = load ptr, ptr %22, align 8
  %24 = call ptr @MemoryContextSwitchTo(ptr noundef %23)
  store ptr %24, ptr %11, align 8
  %25 = load ptr, ptr %6, align 8
  %26 = getelementptr inbounds nuw %struct.ArrayBuildState, ptr %25, i32 0, i32 4
  %27 = load i32, ptr %26, align 4
  %28 = load ptr, ptr %6, align 8
  %29 = getelementptr inbounds nuw %struct.ArrayBuildState, ptr %28, i32 0, i32 3
  %30 = load i32, ptr %29, align 8
  %31 = icmp sge i32 %27, %30
  br i1 %31, label %32, label %78

32:                                               ; preds = %20
  %33 = load ptr, ptr %6, align 8
  %34 = getelementptr inbounds nuw %struct.ArrayBuildState, ptr %33, i32 0, i32 3
  %35 = load i32, ptr %34, align 8
  %36 = mul i32 %35, 2
  store i32 %36, ptr %34, align 8
  %37 = load ptr, ptr %6, align 8
  %38 = getelementptr inbounds nuw %struct.ArrayBuildState, ptr %37, i32 0, i32 3
  %39 = load i32, ptr %38, align 8
  %40 = sext i32 %39 to i64
  %41 = mul i64 %40, 8
  %42 = icmp ule i64 %41, 1073741823
  br i1 %42, label %55, label %43

43:                                               ; preds = %32
  br label %44

44:                                               ; preds = %43
  br i1 true, label %45, label %47

45:                                               ; preds = %44
  %46 = call zeroext i1 @errstart_cold(i32 noundef 21, ptr noundef null) #13
  br i1 %46, label %49, label %52

47:                                               ; preds = %44
  %48 = call zeroext i1 @errstart(i32 noundef 21, ptr noundef null)
  br i1 %48, label %49, label %52

49:                                               ; preds = %47, %45
  %50 = call i32 @errcode(i32 noundef 261)
  %51 = call i32 (ptr, ...) @errmsg(ptr noundef @.str.7, i32 noundef 1073741823)
  call void @errfinish(ptr noundef @.str.2, i32 noundef 5378, ptr noundef @.str.35)
  br label %52

52:                                               ; preds = %49, %47, %45
  unreachable

53:                                               ; No predecessors!
  br label %54

54:                                               ; preds = %53
  br label %55

55:                                               ; preds = %54, %32
  %56 = load ptr, ptr %6, align 8
  %57 = getelementptr inbounds nuw %struct.ArrayBuildState, ptr %56, i32 0, i32 1
  %58 = load ptr, ptr %57, align 8
  %59 = load ptr, ptr %6, align 8
  %60 = getelementptr inbounds nuw %struct.ArrayBuildState, ptr %59, i32 0, i32 3
  %61 = load i32, ptr %60, align 8
  %62 = sext i32 %61 to i64
  %63 = mul i64 %62, 8
  %64 = call ptr @repalloc(ptr noundef %58, i64 noundef %63)
  %65 = load ptr, ptr %6, align 8
  %66 = getelementptr inbounds nuw %struct.ArrayBuildState, ptr %65, i32 0, i32 1
  store ptr %64, ptr %66, align 8
  %67 = load ptr, ptr %6, align 8
  %68 = getelementptr inbounds nuw %struct.ArrayBuildState, ptr %67, i32 0, i32 2
  %69 = load ptr, ptr %68, align 8
  %70 = load ptr, ptr %6, align 8
  %71 = getelementptr inbounds nuw %struct.ArrayBuildState, ptr %70, i32 0, i32 3
  %72 = load i32, ptr %71, align 8
  %73 = sext i32 %72 to i64
  %74 = mul i64 %73, 1
  %75 = call ptr @repalloc(ptr noundef %69, i64 noundef %74)
  %76 = load ptr, ptr %6, align 8
  %77 = getelementptr inbounds nuw %struct.ArrayBuildState, ptr %76, i32 0, i32 2
  store ptr %75, ptr %77, align 8
  br label %78

78:                                               ; preds = %55, %20
  %79 = load i8, ptr %8, align 1, !range !4, !noundef !5
  %80 = trunc i8 %79 to i1
  br i1 %80, label %109, label %81

81:                                               ; preds = %78
  %82 = load ptr, ptr %6, align 8
  %83 = getelementptr inbounds nuw %struct.ArrayBuildState, ptr %82, i32 0, i32 7
  %84 = load i8, ptr %83, align 2, !range !4, !noundef !5
  %85 = trunc i8 %84 to i1
  br i1 %85, label %109, label %86

86:                                               ; preds = %81
  %87 = load ptr, ptr %6, align 8
  %88 = getelementptr inbounds nuw %struct.ArrayBuildState, ptr %87, i32 0, i32 6
  %89 = load i16, ptr %88, align 4
  %90 = sext i16 %89 to i32
  %91 = icmp eq i32 %90, -1
  br i1 %91, label %92, label %97

92:                                               ; preds = %86
  %93 = load i64, ptr %7, align 8
  %94 = call ptr @DatumGetPointer(i64 noundef %93)
  %95 = call ptr @pg_detoast_datum_copy(ptr noundef %94)
  %96 = call i64 @PointerGetDatum(ptr noundef %95)
  store i64 %96, ptr %7, align 8
  br label %108

97:                                               ; preds = %86
  %98 = load i64, ptr %7, align 8
  %99 = load ptr, ptr %6, align 8
  %100 = getelementptr inbounds nuw %struct.ArrayBuildState, ptr %99, i32 0, i32 7
  %101 = load i8, ptr %100, align 2, !range !4, !noundef !5
  %102 = trunc i8 %101 to i1
  %103 = load ptr, ptr %6, align 8
  %104 = getelementptr inbounds nuw %struct.ArrayBuildState, ptr %103, i32 0, i32 6
  %105 = load i16, ptr %104, align 4
  %106 = sext i16 %105 to i32
  %107 = call i64 @datumCopy(i64 noundef %98, i1 noundef zeroext %102, i32 noundef %106)
  store i64 %107, ptr %7, align 8
  br label %108

108:                                              ; preds = %97, %92
  br label %109

109:                                              ; preds = %108, %81, %78
  %110 = load i64, ptr %7, align 8
  %111 = load ptr, ptr %6, align 8
  %112 = getelementptr inbounds nuw %struct.ArrayBuildState, ptr %111, i32 0, i32 1
  %113 = load ptr, ptr %112, align 8
  %114 = load ptr, ptr %6, align 8
  %115 = getelementptr inbounds nuw %struct.ArrayBuildState, ptr %114, i32 0, i32 4
  %116 = load i32, ptr %115, align 4
  %117 = sext i32 %116 to i64
  %118 = getelementptr inbounds i64, ptr %113, i64 %117
  store i64 %110, ptr %118, align 8
  %119 = load i8, ptr %8, align 1, !range !4, !noundef !5
  %120 = trunc i8 %119 to i1
  %121 = load ptr, ptr %6, align 8
  %122 = getelementptr inbounds nuw %struct.ArrayBuildState, ptr %121, i32 0, i32 2
  %123 = load ptr, ptr %122, align 8
  %124 = load ptr, ptr %6, align 8
  %125 = getelementptr inbounds nuw %struct.ArrayBuildState, ptr %124, i32 0, i32 4
  %126 = load i32, ptr %125, align 4
  %127 = sext i32 %126 to i64
  %128 = getelementptr inbounds i8, ptr %123, i64 %127
  %129 = zext i1 %120 to i8
  store i8 %129, ptr %128, align 1
  %130 = load ptr, ptr %6, align 8
  %131 = getelementptr inbounds nuw %struct.ArrayBuildState, ptr %130, i32 0, i32 4
  %132 = load i32, ptr %131, align 4
  %133 = add i32 %132, 1
  store i32 %133, ptr %131, align 4
  %134 = load ptr, ptr %11, align 8
  %135 = call ptr @MemoryContextSwitchTo(ptr noundef %134)
  %136 = load ptr, ptr %6, align 8
  call void @llvm.lifetime.end.p0(i64 8, ptr %11) #11
  ret ptr %136
}