; Function Attrs: nounwind uwtable
define dso_local noundef ptr @accumArrayResult(ptr noundef captures(address_is_null, ret: address, provenance) %0, i64 noundef %1, i1 noundef zeroext %2, i32 noundef %3, ptr noundef %4) local_unnamed_addr #0 {
  %6 = icmp eq ptr %0, null
  br i1 %6, label %7, label %23

7:                                                ; preds = %5
  %8 = tail call ptr @AllocSetContextCreateInternal(ptr noundef %4, ptr noundef nonnull @.str.35, i64 noundef 0, i64 noundef 8192, i64 noundef 8388608) #18
  %9 = tail call ptr @MemoryContextAlloc(ptr noundef %8, i64 noundef 48) #18
  store ptr %8, ptr %9, align 8
  %10 = getelementptr inbounds nuw i8, ptr %9, i64 40
  store i8 1, ptr %10, align 8
  %11 = getelementptr inbounds nuw i8, ptr %9, i64 24
  store i32 64, ptr %11, align 8
  %12 = tail call ptr @MemoryContextAlloc(ptr noundef %8, i64 noundef 512) #18
  %13 = getelementptr inbounds nuw i8, ptr %9, i64 8
  store ptr %12, ptr %13, align 8
  %14 = load i32, ptr %11, align 8
  %15 = sext i32 %14 to i64
  %16 = tail call ptr @MemoryContextAlloc(ptr noundef %8, i64 noundef %15) #18
  %17 = getelementptr inbounds nuw i8, ptr %9, i64 16
  store ptr %16, ptr %17, align 8
  %18 = getelementptr inbounds nuw i8, ptr %9, i64 28
  store i32 0, ptr %18, align 4
  %19 = getelementptr inbounds nuw i8, ptr %9, i64 32
  store i32 %3, ptr %19, align 8
  %20 = getelementptr inbounds nuw i8, ptr %9, i64 36
  %21 = getelementptr inbounds nuw i8, ptr %9, i64 38
  %22 = getelementptr inbounds nuw i8, ptr %9, i64 39
  tail call void @get_typlenbyvalalign(i32 noundef %3, ptr noundef nonnull %20, ptr noundef nonnull %21, ptr noundef nonnull %22) #18
  br label %23

23:                                               ; preds = %5, %7
  %.0 = phi ptr [ %9, %7 ], [ %0, %5 ]
  %24 = load ptr, ptr %.0, align 8
  %25 = load ptr, ptr @CurrentMemoryContext, align 8
  store ptr %24, ptr @CurrentMemoryContext, align 8
  %26 = getelementptr inbounds nuw i8, ptr %.0, i64 28
  %27 = load i32, ptr %26, align 4
  %28 = getelementptr inbounds nuw i8, ptr %.0, i64 24
  %29 = load i32, ptr %28, align 8
  %.not = icmp slt i32 %27, %29
  br i1 %.not, label %48, label %30

30:                                               ; preds = %23
  %31 = shl i32 %29, 1
  store i32 %31, ptr %28, align 8
  %32 = sext i32 %31 to i64
  %33 = shl nsw i64 %32, 3
  %34 = icmp ult i64 %33, 1073741824
  br i1 %34, label %39, label %35

35:                                               ; preds = %30
  %36 = tail call zeroext i1 @errstart_cold(i32 noundef 21, ptr noundef null) #20
  tail call void @llvm.assume(i1 %36)
  %37 = tail call i32 @errcode(i32 noundef 261) #18
  %38 = tail call i32 (ptr, ...) @errmsg(ptr noundef nonnull @.str.7, i32 noundef 1073741823) #18
  tail call void @errfinish(ptr noundef nonnull @.str.2, i32 noundef 5378, ptr noundef nonnull @.str.35) #18
  unreachable

39:                                               ; preds = %30
  %40 = getelementptr inbounds nuw i8, ptr %.0, i64 8
  %41 = load ptr, ptr %40, align 8
  %42 = tail call ptr @repalloc(ptr noundef %41, i64 noundef %33) #18
  store ptr %42, ptr %40, align 8
  %43 = getelementptr inbounds nuw i8, ptr %.0, i64 16
  %44 = load ptr, ptr %43, align 8
  %45 = load i32, ptr %28, align 8
  %46 = sext i32 %45 to i64
  %47 = tail call ptr @repalloc(ptr noundef %44, i64 noundef %46) #18
  store ptr %47, ptr %43, align 8
  br label %48

48:                                               ; preds = %39, %23
  br i1 %2, label %64, label %49

49:                                               ; preds = %48
  %50 = getelementptr inbounds nuw i8, ptr %.0, i64 38
  %51 = load i8, ptr %50, align 2, !range !4, !noundef !5
  %52 = trunc nuw i8 %51 to i1
  br i1 %52, label %64, label %53

53:                                               ; preds = %49
  %54 = getelementptr inbounds nuw i8, ptr %.0, i64 36
  %55 = load i16, ptr %54, align 4
  %56 = icmp eq i16 %55, -1
  br i1 %56, label %57, label %61

57:                                               ; preds = %53
  %58 = inttoptr i64 %1 to ptr
  %59 = tail call ptr @pg_detoast_datum_copy(ptr noundef %58) #18
  %60 = ptrtoint ptr %59 to i64
  br label %64

61:                                               ; preds = %53
  %62 = sext i16 %55 to i32
  %63 = tail call i64 @datumCopy(i64 noundef %1, i1 noundef zeroext false, i32 noundef %62) #18
  br label %64

64:                                               ; preds = %57, %61, %49, %48
  %.029 = phi i64 [ %1, %48 ], [ %1, %49 ], [ %60, %57 ], [ %63, %61 ]
  %65 = zext i1 %2 to i8
  %66 = getelementptr inbounds nuw i8, ptr %.0, i64 8
  %67 = load ptr, ptr %66, align 8
  %68 = load i32, ptr %26, align 4
  %69 = sext i32 %68 to i64
  %70 = getelementptr inbounds i64, ptr %67, i64 %69
  store i64 %.029, ptr %70, align 8
  %71 = getelementptr inbounds nuw i8, ptr %.0, i64 16
  %72 = load ptr, ptr %71, align 8
  %73 = load i32, ptr %26, align 4
  %74 = sext i32 %73 to i64
  %75 = getelementptr inbounds i8, ptr %72, i64 %74
  store i8 %65, ptr %75, align 1
  %76 = load i32, ptr %26, align 4
  %77 = add i32 %76, 1
  store i32 %77, ptr %26, align 4
  store ptr %25, ptr @CurrentMemoryContext, align 8
  ret ptr %.0
}